target datalayout = "e-m:e-p270:32:32-p271:32:32-p272:64:64-i64:64-i128:128-f80:128-n8:16:32:64-S128"
target triple = "x86_64-pc-linux-gnu"

%struct.MXFMetadataSet = type { [16 x i8], i64 }
%struct.MXFFFV1SubDescriptor = type { %struct.MXFMetadataSet, ptr, i32 }

@mxf_ffv1_extradata = internal constant [16 x i8] c"\06\0E+4\01\01\01\0E\04\01\06\0C\01\00\00\00", align 16
@.str.62 = private unnamed_addr constant [26 x i8] c"Duplicate ffv1_extradata\0A\00", align 1

; Function Attrs: nounwind uwtable
define internal i32 @mxf_read_ffv1_sub_descriptor(ptr noundef %0, ptr noundef %1, i32 noundef %2, i32 noundef %3, ptr noundef %4, i64 noundef %5) #0 {
  %7 = alloca i32, align 4
  %8 = alloca ptr, align 8
  %9 = alloca ptr, align 8
  %10 = alloca i32, align 4
  %11 = alloca i32, align 4
  %12 = alloca ptr, align 8
  %13 = alloca i64, align 8
  %14 = alloca ptr, align 8
  %15 = alloca i32, align 4
  store ptr %0, ptr %8, align 8, !tbaa !90
  store ptr %1, ptr %9, align 8, !tbaa !138
  store i32 %2, ptr %10, align 4, !tbaa !47
  store i32 %3, ptr %11, align 4, !tbaa !47
  store ptr %4, ptr %12, align 8, !tbaa !13
  store i64 %5, ptr %13, align 8, !tbaa !37
  call void @llvm.lifetime.start.p0(i64 8, ptr %14) #13
  %16 = load ptr, ptr %8, align 8, !tbaa !90
  store ptr %16, ptr %14, align 8, !tbaa !320
  %17 = load ptr, ptr %12, align 8, !tbaa !13
  %18 = call i32 @memcmp(ptr noundef %17, ptr noundef @mxf_ffv1_extradata, i64 noundef 16) #14
  %19 = icmp ne i32 %18, 0
  br i1 %19, label %56, label %20

20:                                               ; preds = %6
  %21 = load i32, ptr %11, align 4, !tbaa !47
  %22 = icmp sle i32 %21, 2147483583
  br i1 %22, label %23, label %56

23:                                               ; preds = %20
  %24 = load ptr, ptr %14, align 8, !tbaa !320
  %25 = getelementptr inbounds nuw %struct.MXFFFV1SubDescriptor, ptr %24, i32 0, i32 1
  %26 = load ptr, ptr %25, align 8, !tbaa !322
  %27 = icmp ne ptr %26, null
  br i1 %27, label %28, label %29

28:                                               ; preds = %23
  call void (ptr, i32, ptr, ...) @av_log(ptr noundef null, i32 noundef 24, ptr noundef @.str.62)
  br label %29

29:                                               ; preds = %28, %23
  %30 = load ptr, ptr %14, align 8, !tbaa !320
  %31 = getelementptr inbounds nuw %struct.MXFFFV1SubDescriptor, ptr %30, i32 0, i32 1
  %32 = load ptr, ptr %31, align 8, !tbaa !322
  call void @av_free(ptr noundef %32)
  %33 = load ptr, ptr %14, align 8, !tbaa !320
  %34 = getelementptr inbounds nuw %struct.MXFFFV1SubDescriptor, ptr %33, i32 0, i32 2
  store i32 0, ptr %34, align 8, !tbaa !324
  %35 = load i32, ptr %11, align 4, !tbaa !47
  %36 = add nsw i32 %35, 64
  %37 = sext i32 %36 to i64
  %38 = call noalias ptr @av_mallocz(i64 noundef %37)
  %39 = load ptr, ptr %14, align 8, !tbaa !320
  %40 = getelementptr inbounds nuw %struct.MXFFFV1SubDescriptor, ptr %39, i32 0, i32 1
  store ptr %38, ptr %40, align 8, !tbaa !322
  %41 = load ptr, ptr %14, align 8, !tbaa !320
  %42 = getelementptr inbounds nuw %struct.MXFFFV1SubDescriptor, ptr %41, i32 0, i32 1
  %43 = load ptr, ptr %42, align 8, !tbaa !322
  %44 = icmp ne ptr %43, null
  br i1 %44, label %46, label %45

45:                                               ; preds = %29
  store i32 -12, ptr %7, align 4
  store i32 1, ptr %15, align 4
  br label %57

46:                                               ; preds = %29
  %47 = load i32, ptr %11, align 4, !tbaa !47
  %48 = load ptr, ptr %14, align 8, !tbaa !320
  %49 = getelementptr inbounds nuw %struct.MXFFFV1SubDescriptor, ptr %48, i32 0, i32 2
  store i32 %47, ptr %49, align 8, !tbaa !324
  %50 = load ptr, ptr %9, align 8, !tbaa !138
  %51 = load ptr, ptr %14, align 8, !tbaa !320
  %52 = getelementptr inbounds nuw %struct.MXFFFV1SubDescriptor, ptr %51, i32 0, i32 1
  %53 = load ptr, ptr %52, align 8, !tbaa !322
  %54 = load i32, ptr %11, align 4, !tbaa !47
  %55 = call i32 @avio_read(ptr noundef %50, ptr noundef %53, i32 noundef %54)
  br label %56

56:                                               ; preds = %46, %20, %6
  store i32 0, ptr %7, align 4
  store i32 1, ptr %15, align 4
  br label %57

57:                                               ; preds = %56, %45
  call void @llvm.lifetime.end.p0(i64 8, ptr %14) #13
  %58 = load i32, ptr %7, align 4
  ret i32 %58
}