; Function Attrs: nounwind uwtable
define internal range(i32 -12, 1) i32 @mxf_read_ffv1_sub_descriptor(ptr noundef captures(none) %0, ptr noundef %1, i32 %2, i32 noundef %3, ptr noundef readonly captures(none) %4, i64 %5) #1 {
  %bcmp = tail call i32 @bcmp(ptr noundef nonnull dereferenceable(16) %4, ptr noundef nonnull dereferenceable(16) @mxf_ffv1_extradata, i64 16)
  %7 = icmp eq i32 %bcmp, 0
  %8 = icmp slt i32 %3, 2147483584
  %or.cond = and i1 %8, %7
  br i1 %or.cond, label %9, label %21

9:                                                ; preds = %6
  %10 = getelementptr inbounds nuw i8, ptr %0, i64 24
  %11 = load ptr, ptr %10, align 8, !tbaa !204
  %.not = icmp eq ptr %11, null
  br i1 %.not, label %13, label %12

12:                                               ; preds = %9
  tail call void (ptr, i32, ptr, ...) @av_log(ptr noundef null, i32 noundef 24, ptr noundef nonnull @.str.62) #15
  %.pre = load ptr, ptr %10, align 8, !tbaa !204
  br label %13

13:                                               ; preds = %12, %9
  %14 = phi ptr [ %.pre, %12 ], [ null, %9 ]
  tail call void @av_free(ptr noundef %14) #15
  %15 = getelementptr inbounds nuw i8, ptr %0, i64 32
  store i32 0, ptr %15, align 8, !tbaa !206
  %16 = add nsw i32 %3, 64
  %17 = sext i32 %16 to i64
  %18 = tail call noalias ptr @av_mallocz(i64 noundef %17) #15
  store ptr %18, ptr %10, align 8, !tbaa !204
  %.not16 = icmp eq ptr %18, null
  br i1 %.not16, label %21, label %19

19:                                               ; preds = %13
  store i32 %3, ptr %15, align 8, !tbaa !206
  %20 = tail call i32 @avio_read(ptr noundef %1, ptr noundef nonnull %18, i32 noundef %3) #15
  br label %21

21:                                               ; preds = %6, %19, %13
  %.0 = phi i32 [ -12, %13 ], [ 0, %19 ], [ 0, %6 ]
  ret i32 %.0
}